(dp0
S''
p1
(lp2
sS'Dr_Kens'
p3
(lp4
g3
aS'~The_Kens@vacuums.really.suck'
p5
aS'Perma'
p6
aS"I don't love you"
p7
asS'Riemann'
p8
(lp9
g8
aS'Riemann@Procy.Is.Great'
p10
aS'Perma'
p11
aS'butts'
p12
asS'Eskobar Eskobear'
p13
(lp14
g13
aS'excuse.me.problem.is.there.an.officer'
p15
aS'Unbanned'
p16
aS'too sexy'
p17
asS'Roget'
p18
(lp19
g18
aS'the.saurus synIRC-F3894AD0.hsd1.fl.comcast.net'
p20
ag16
aS"Being a lil' hitler"
p21
asS'Tuomey'
p22
(lp23
g22
aS'you@arentmy.realdad'
p24
aS'7/16/2014'
p25
aS'Being too oh me'
p26
asS'Jekeled'
p27
(lp28
g27
aS'~chatzilla@synIRC-EDADB450.hsd1.wa.comcast.net'
p29
aS'Perma'
p30
aS'Volunteering for stuff'
p31
as.